; ModuleID = '22/156.c'
source_filename = "22/156.c"
target datalayout = "e-m:e-p270:32:32-p271:32:32-p272:64:64-i64:64-f80:128-n8:16:32:64-S128"
target triple = "x86_64-pc-linux-gnu"

@.str = private unnamed_addr constant [3 x i8] c"%s\00", align 1
@.str.1 = private unnamed_addr constant [4 x i8] c"No\0A\00", align 1
@.str.2 = private unnamed_addr constant [4 x i8] c"%d\0A\00", align 1

; Function Attrs: noinline nounwind uwtable
define dso_local i32 @checkNum(i8 signext %0) #0 {
  %2 = alloca i32, align 4
  %3 = alloca i8, align 1
  store i8 %0, i8* %3, align 1
  %4 = load i8, i8* %3, align 1
  %5 = sext i8 %4 to i32
  %6 = icmp sge i32 %5, 48
  br i1 %6, label %7, label %12

7:                                                ; preds = %1
  %8 = load i8, i8* %3, align 1
  %9 = sext i8 %8 to i32
  %10 = icmp sle i32 %9, 57
  br i1 %10, label %11, label %12

11:                                               ; preds = %7
  store i32 1, i32* %2, align 4
  br label %13

12:                                               ; preds = %7, %1
  store i32 0, i32* %2, align 4
  br label %13

13:                                               ; preds = %12, %11
  %14 = load i32, i32* %2, align 4
  ret i32 %14
}

; Function Attrs: noinline nounwind uwtable
define dso_local void @change(i32* %0, i32* %1) #0 {
  %3 = alloca i32*, align 8
  %4 = alloca i32*, align 8
  store i32* %0, i32** %3, align 8
  store i32* %1, i32** %4, align 8
  %5 = load i32*, i32** %3, align 8
  %6 = load i32, i32* %5, align 4
  %7 = load i32*, i32** %4, align 8
  %8 = load i32, i32* %7, align 4
  %9 = add nsw i32 %6, %8
  %10 = load i32*, i32** %3, align 8
  store i32 %9, i32* %10, align 4
  %11 = load i32*, i32** %3, align 8
  %12 = load i32, i32* %11, align 4
  %13 = load i32*, i32** %4, align 8
  %14 = load i32, i32* %13, align 4
  %15 = sub nsw i32 %12, %14
  %16 = load i32*, i32** %4, align 8
  store i32 %15, i32* %16, align 4
  %17 = load i32*, i32** %3, align 8
  %18 = load i32, i32* %17, align 4
  %19 = load i32*, i32** %4, align 8
  %20 = load i32, i32* %19, align 4
  %21 = sub nsw i32 %18, %20
  %22 = load i32*, i32** %3, align 8
  store i32 %21, i32* %22, align 4
  ret void
}

; Function Attrs: noinline nounwind uwtable
define dso_local i32 @main() #0 {
  %1 = alloca i32, align 4
  %2 = alloca [1000 x i8], align 16
  %3 = alloca i32, align 4
  %4 = alloca i32, align 4
  %5 = alloca i32, align 4
  %6 = alloca [500 x i32], align 16
  %7 = alloca i32, align 4
  store i32 0, i32* %1, align 4
  store i32 0, i32* %7, align 4
  %8 = getelementptr inbounds [1000 x i8], [1000 x i8]* %2, i64 0, i64 0
  %9 = call i32 (i8*, ...) @__isoc99_scanf(i8* getelementptr inbounds ([3 x i8], [3 x i8]* @.str, i64 0, i64 0), i8* %8)
  store i32 0, i32* %3, align 4
  br label %10

10:                                               ; preds = %54, %24, %0
  %11 = load i32, i32* %3, align 4
  %12 = sext i32 %11 to i64
  %13 = getelementptr inbounds [1000 x i8], [1000 x i8]* %2, i64 0, i64 %12
  %14 = load i8, i8* %13, align 1
  %15 = sext i8 %14 to i32
  %16 = icmp ne i32 %15, 0
  br i1 %16, label %17, label %55

17:                                               ; preds = %10
  %18 = load i32, i32* %3, align 4
  %19 = sext i32 %18 to i64
  %20 = getelementptr inbounds [1000 x i8], [1000 x i8]* %2, i64 0, i64 %19
  %21 = load i8, i8* %20, align 1
  %22 = call i32 @checkNum(i8 signext %21)
  %23 = icmp ne i32 %22, 0
  br i1 %23, label %27, label %24

24:                                               ; preds = %17
  %25 = load i32, i32* %3, align 4
  %26 = add nsw i32 %25, 1
  store i32 %26, i32* %3, align 4
  br label %10

27:                                               ; preds = %17
  store i32 0, i32* %5, align 4
  br label %28

28:                                               ; preds = %35, %27
  %29 = load i32, i32* %3, align 4
  %30 = sext i32 %29 to i64
  %31 = getelementptr inbounds [1000 x i8], [1000 x i8]* %2, i64 0, i64 %30
  %32 = load i8, i8* %31, align 1
  %33 = call i32 @checkNum(i8 signext %32)
  %34 = icmp ne i32 %33, 0
  br i1 %34, label %35, label %47

35:                                               ; preds = %28
  %36 = load i32, i32* %5, align 4
  %37 = mul nsw i32 %36, 10
  %38 = load i32, i32* %3, align 4
  %39 = sext i32 %38 to i64
  %40 = getelementptr inbounds [1000 x i8], [1000 x i8]* %2, i64 0, i64 %39
  %41 = load i8, i8* %40, align 1
  %42 = sext i8 %41 to i32
  %43 = add nsw i32 %37, %42
  %44 = sub nsw i32 %43, 48
  store i32 %44, i32* %5, align 4
  %45 = load i32, i32* %3, align 4
  %46 = add nsw i32 %45, 1
  store i32 %46, i32* %3, align 4
  br label %28

47:                                               ; preds = %28
  %48 = load i32, i32* %5, align 4
  %49 = load i32, i32* %7, align 4
  %50 = sext i32 %49 to i64
  %51 = getelementptr inbounds [500 x i32], [500 x i32]* %6, i64 0, i64 %50
  store i32 %48, i32* %51, align 4
  %52 = load i32, i32* %7, align 4
  %53 = add nsw i32 %52, 1
  store i32 %53, i32* %7, align 4
  br label %54

54:                                               ; preds = %47
  br label %10

55:                                               ; preds = %10
  %56 = load i32, i32* %7, align 4
  %57 = icmp eq i32 %56, 1
  br i1 %57, label %58, label %60

58:                                               ; preds = %55
  %59 = call i32 (i8*, ...) @printf(i8* getelementptr inbounds ([4 x i8], [4 x i8]* @.str.1, i64 0, i64 0))
  br label %133

60:                                               ; preds = %55
  store i32 0, i32* %3, align 4
  br label %61

61:                                               ; preds = %95, %60
  %62 = load i32, i32* %3, align 4
  %63 = load i32, i32* %7, align 4
  %64 = sub nsw i32 %63, 1
  %65 = icmp slt i32 %62, %64
  br i1 %65, label %66, label %98

66:                                               ; preds = %61
  %67 = load i32, i32* %3, align 4
  %68 = add nsw i32 %67, 1
  store i32 %68, i32* %4, align 4
  br label %69

69:                                               ; preds = %91, %66
  %70 = load i32, i32* %4, align 4
  %71 = load i32, i32* %7, align 4
  %72 = icmp slt i32 %70, %71
  br i1 %72, label %73, label %94

73:                                               ; preds = %69
  %74 = load i32, i32* %3, align 4
  %75 = sext i32 %74 to i64
  %76 = getelementptr inbounds [500 x i32], [500 x i32]* %6, i64 0, i64 %75
  %77 = load i32, i32* %76, align 4
  %78 = load i32, i32* %4, align 4
  %79 = sext i32 %78 to i64
  %80 = getelementptr inbounds [500 x i32], [500 x i32]* %6, i64 0, i64 %79
  %81 = load i32, i32* %80, align 4
  %82 = icmp sgt i32 %77, %81
  br i1 %82, label %83, label %90

83:                                               ; preds = %73
  %84 = load i32, i32* %3, align 4
  %85 = sext i32 %84 to i64
  %86 = getelementptr inbounds [500 x i32], [500 x i32]* %6, i64 0, i64 %85
  %87 = load i32, i32* %4, align 4
  %88 = sext i32 %87 to i64
  %89 = getelementptr inbounds [500 x i32], [500 x i32]* %6, i64 0, i64 %88
  call void @change(i32* %86, i32* %89)
  br label %90

90:                                               ; preds = %83, %73
  br label %91

91:                                               ; preds = %90
  %92 = load i32, i32* %4, align 4
  %93 = add nsw i32 %92, 1
  store i32 %93, i32* %4, align 4
  br label %69

94:                                               ; preds = %69
  br label %95

95:                                               ; preds = %94
  %96 = load i32, i32* %3, align 4
  %97 = add nsw i32 %96, 1
  store i32 %97, i32* %3, align 4
  br label %61

98:                                               ; preds = %61
  %99 = load i32, i32* %7, align 4
  %100 = sub nsw i32 %99, 2
  store i32 %100, i32* %3, align 4
  %101 = load i32, i32* %3, align 4
  %102 = add nsw i32 %101, 1
  store i32 %102, i32* %4, align 4
  br label %103

103:                                              ; preds = %118, %98
  %104 = load i32, i32* %4, align 4
  %105 = sext i32 %104 to i64
  %106 = getelementptr inbounds [500 x i32], [500 x i32]* %6, i64 0, i64 %105
  %107 = load i32, i32* %106, align 4
  %108 = load i32, i32* %3, align 4
  %109 = sext i32 %108 to i64
  %110 = getelementptr inbounds [500 x i32], [500 x i32]* %6, i64 0, i64 %109
  %111 = load i32, i32* %110, align 4
  %112 = icmp eq i32 %107, %111
  br i1 %112, label %113, label %116

113:                                              ; preds = %103
  %114 = load i32, i32* %3, align 4
  %115 = icmp sge i32 %114, 0
  br label %116

116:                                              ; preds = %113, %103
  %117 = phi i1 [ false, %103 ], [ %115, %113 ]
  br i1 %117, label %118, label %121

118:                                              ; preds = %116
  %119 = load i32, i32* %3, align 4
  %120 = add nsw i32 %119, -1
  store i32 %120, i32* %3, align 4
  br label %103

121:                                              ; preds = %116
  %122 = load i32, i32* %3, align 4
  %123 = icmp slt i32 %122, 0
  br i1 %123, label %124, label %126

124:                                              ; preds = %121
  %125 = call i32 (i8*, ...) @printf(i8* getelementptr inbounds ([4 x i8], [4 x i8]* @.str.1, i64 0, i64 0))
  br label %132

126:                                              ; preds = %121
  %127 = load i32, i32* %3, align 4
  %128 = sext i32 %127 to i64
  %129 = getelementptr inbounds [500 x i32], [500 x i32]* %6, i64 0, i64 %128
  %130 = load i32, i32* %129, align 4
  %131 = call i32 (i8*, ...) @printf(i8* getelementptr inbounds ([4 x i8], [4 x i8]* @.str.2, i64 0, i64 0), i32 %130)
  br label %132

132:                                              ; preds = %126, %124
  br label %133

133:                                              ; preds = %132, %58
  %134 = load i32, i32* %1, align 4
  ret i32 %134
}

declare dso_local i32 @__isoc99_scanf(i8*, ...) #1

declare dso_local i32 @printf(i8*, ...) #1


!llvm.module.flags = !{!0}
!llvm.ident = !{!1}

!0 = !{i32 1, !"wchar_size", i32 4}
!1 = !{!"clang version 10.0.0-4ubuntu1 "}
